target datalayout = "e-m:e-p270:32:32-p271:32:32-p272:64:64-i64:64-i128:128-f80:128-n8:16:32:64-S128"
target triple = "x86_64-pc-linux-gnu"

%struct.slurm_step_layout = type { ptr, i32, ptr, ptr, ptr, i32, ptr, i16, i16, ptr, i32, i32, ptr }

@.str = private unnamed_addr constant [20 x i8] c"slurm_step_layout.c\00", align 1
@__func__.slurm_step_layout_copy = private unnamed_addr constant [23 x i8] c"slurm_step_layout_copy\00", align 1

; Function Attrs: nounwind uwtable
define dso_local ptr @slurm_step_layout_copy(ptr noundef %0) #0 {
  %2 = alloca ptr, align 8
  %3 = alloca ptr, align 8
  %4 = alloca ptr, align 8
  %5 = alloca i32, align 4
  %6 = alloca i32, align 4
  %7 = alloca i32, align 4
  store ptr %0, ptr %3, align 8
  call void @llvm.lifetime.start.p0(i64 8, ptr %4) #7
  call void @llvm.lifetime.start.p0(i64 4, ptr %5) #7
  store i32 0, ptr %5, align 4
  %8 = load ptr, ptr %3, align 8
  %9 = icmp ne ptr %8, null
  br i1 %9, label %11, label %10

10:                                               ; preds = %1
  store ptr null, ptr %2, align 8
  store i32 1, ptr %6, align 4
  br label %169

11:                                               ; preds = %1
  %12 = call ptr @slurm_xcalloc(i64 noundef 1, i64 noundef 88, i1 noundef zeroext true, i1 noundef zeroext false, ptr noundef @.str, i32 noundef 214, ptr noundef @__func__.slurm_step_layout_copy)
  store ptr %12, ptr %4, align 8
  %13 = load ptr, ptr %3, align 8
  %14 = getelementptr inbounds nuw %struct.slurm_step_layout, ptr %13, i32 0, i32 4
  %15 = load ptr, ptr %14, align 8
  %16 = icmp ne ptr %15, null
  br i1 %16, label %17, label %27

17:                                               ; preds = %11
  %18 = call ptr @slurm_xcalloc(i64 noundef 1, i64 noundef 40, i1 noundef zeroext true, i1 noundef zeroext false, ptr noundef @.str, i32 noundef 216, ptr noundef @__func__.slurm_step_layout_copy)
  %19 = load ptr, ptr %4, align 8
  %20 = getelementptr inbounds nuw %struct.slurm_step_layout, ptr %19, i32 0, i32 4
  store ptr %18, ptr %20, align 8
  %21 = load ptr, ptr %4, align 8
  %22 = getelementptr inbounds nuw %struct.slurm_step_layout, ptr %21, i32 0, i32 4
  %23 = load ptr, ptr %22, align 8
  %24 = load ptr, ptr %3, align 8
  %25 = getelementptr inbounds nuw %struct.slurm_step_layout, ptr %24, i32 0, i32 4
  %26 = load ptr, ptr %25, align 8
  call void @slurm_copy_node_alias_addrs_members(ptr noundef %23, ptr noundef %26)
  br label %27

27:                                               ; preds = %17, %11
  %28 = load ptr, ptr %3, align 8
  %29 = getelementptr inbounds nuw %struct.slurm_step_layout, ptr %28, i32 0, i32 6
  %30 = load ptr, ptr %29, align 8
  %31 = call ptr @xstrdup(ptr noundef %30)
  %32 = load ptr, ptr %4, align 8
  %33 = getelementptr inbounds nuw %struct.slurm_step_layout, ptr %32, i32 0, i32 6
  store ptr %31, ptr %33, align 8
  %34 = load ptr, ptr %3, align 8
  %35 = getelementptr inbounds nuw %struct.slurm_step_layout, ptr %34, i32 0, i32 5
  %36 = load i32, ptr %35, align 8
  %37 = load ptr, ptr %4, align 8
  %38 = getelementptr inbounds nuw %struct.slurm_step_layout, ptr %37, i32 0, i32 5
  store i32 %36, ptr %38, align 8
  %39 = load ptr, ptr %3, align 8
  %40 = getelementptr inbounds nuw %struct.slurm_step_layout, ptr %39, i32 0, i32 8
  %41 = load i16, ptr %40, align 2
  %42 = load ptr, ptr %4, align 8
  %43 = getelementptr inbounds nuw %struct.slurm_step_layout, ptr %42, i32 0, i32 8
  store i16 %41, ptr %43, align 2
  %44 = load ptr, ptr %3, align 8
  %45 = getelementptr inbounds nuw %struct.slurm_step_layout, ptr %44, i32 0, i32 10
  %46 = load i32, ptr %45, align 8
  %47 = load ptr, ptr %4, align 8
  %48 = getelementptr inbounds nuw %struct.slurm_step_layout, ptr %47, i32 0, i32 10
  store i32 %46, ptr %48, align 8
  %49 = load ptr, ptr %3, align 8
  %50 = getelementptr inbounds nuw %struct.slurm_step_layout, ptr %49, i32 0, i32 11
  %51 = load i32, ptr %50, align 4
  %52 = load ptr, ptr %4, align 8
  %53 = getelementptr inbounds nuw %struct.slurm_step_layout, ptr %52, i32 0, i32 11
  store i32 %51, ptr %53, align 4
  %54 = load ptr, ptr %4, align 8
  %55 = getelementptr inbounds nuw %struct.slurm_step_layout, ptr %54, i32 0, i32 5
  %56 = load i32, ptr %55, align 8
  %57 = zext i32 %56 to i64
  %58 = call ptr @slurm_xcalloc(i64 noundef %57, i64 noundef 2, i1 noundef zeroext true, i1 noundef zeroext false, ptr noundef @.str, i32 noundef 226, ptr noundef @__func__.slurm_step_layout_copy)
  %59 = load ptr, ptr %4, align 8
  %60 = getelementptr inbounds nuw %struct.slurm_step_layout, ptr %59, i32 0, i32 9
  store ptr %58, ptr %60, align 8
  %61 = load ptr, ptr %4, align 8
  %62 = getelementptr inbounds nuw %struct.slurm_step_layout, ptr %61, i32 0, i32 9
  %63 = load ptr, ptr %62, align 8
  %64 = load ptr, ptr %3, align 8
  %65 = getelementptr inbounds nuw %struct.slurm_step_layout, ptr %64, i32 0, i32 9
  %66 = load ptr, ptr %65, align 8
  %67 = load ptr, ptr %4, align 8
  %68 = getelementptr inbounds nuw %struct.slurm_step_layout, ptr %67, i32 0, i32 5
  %69 = load i32, ptr %68, align 8
  %70 = zext i32 %69 to i64
  %71 = mul i64 2, %70
  call void @llvm.memcpy.p0.p0.i64(ptr align 2 %63, ptr align 2 %66, i64 %71, i1 false)
  %72 = load ptr, ptr %3, align 8
  %73 = getelementptr inbounds nuw %struct.slurm_step_layout, ptr %72, i32 0, i32 1
  %74 = load i32, ptr %73, align 8
  %75 = icmp ne i32 %74, 0
  br i1 %75, label %76, label %111

76:                                               ; preds = %27
  call void @llvm.lifetime.start.p0(i64 4, ptr %7) #7
  %77 = load ptr, ptr %3, align 8
  %78 = getelementptr inbounds nuw %struct.slurm_step_layout, ptr %77, i32 0, i32 1
  %79 = load i32, ptr %78, align 8
  store i32 %79, ptr %7, align 4
  %80 = load i32, ptr %7, align 4
  %81 = load ptr, ptr %4, align 8
  %82 = getelementptr inbounds nuw %struct.slurm_step_layout, ptr %81, i32 0, i32 1
  store i32 %80, ptr %82, align 8
  %83 = load i32, ptr %7, align 4
  %84 = zext i32 %83 to i64
  %85 = call ptr @slurm_xcalloc(i64 noundef %84, i64 noundef 2, i1 noundef zeroext true, i1 noundef zeroext false, ptr noundef @.str, i32 noundef 234, ptr noundef @__func__.slurm_step_layout_copy)
  %86 = load ptr, ptr %4, align 8
  %87 = getelementptr inbounds nuw %struct.slurm_step_layout, ptr %86, i32 0, i32 0
  store ptr %85, ptr %87, align 8
  %88 = load ptr, ptr %4, align 8
  %89 = getelementptr inbounds nuw %struct.slurm_step_layout, ptr %88, i32 0, i32 0
  %90 = load ptr, ptr %89, align 8
  %91 = load ptr, ptr %3, align 8
  %92 = getelementptr inbounds nuw %struct.slurm_step_layout, ptr %91, i32 0, i32 0
  %93 = load ptr, ptr %92, align 8
  %94 = load i32, ptr %7, align 4
  %95 = zext i32 %94 to i64
  %96 = mul i64 2, %95
  call void @llvm.memcpy.p0.p0.i64(ptr align 2 %90, ptr align 2 %93, i64 %96, i1 false)
  %97 = load i32, ptr %7, align 4
  %98 = zext i32 %97 to i64
  %99 = call ptr @slurm_xcalloc(i64 noundef %98, i64 noundef 4, i1 noundef zeroext true, i1 noundef zeroext false, ptr noundef @.str, i32 noundef 240, ptr noundef @__func__.slurm_step_layout_copy)
  %100 = load ptr, ptr %4, align 8
  %101 = getelementptr inbounds nuw %struct.slurm_step_layout, ptr %100, i32 0, i32 2
  store ptr %99, ptr %101, align 8
  %102 = load ptr, ptr %4, align 8
  %103 = getelementptr inbounds nuw %struct.slurm_step_layout, ptr %102, i32 0, i32 2
  %104 = load ptr, ptr %103, align 8
  %105 = load ptr, ptr %3, align 8
  %106 = getelementptr inbounds nuw %struct.slurm_step_layout, ptr %105, i32 0, i32 2
  %107 = load ptr, ptr %106, align 8
  %108 = load i32, ptr %7, align 4
  %109 = zext i32 %108 to i64
  %110 = mul i64 4, %109
  call void @llvm.memcpy.p0.p0.i64(ptr align 4 %104, ptr align 4 %107, i64 %110, i1 false)
  call void @llvm.lifetime.end.p0(i64 4, ptr %7) #7
  br label %111

111:                                              ; preds = %76, %27
  %112 = load ptr, ptr %4, align 8
  %113 = getelementptr inbounds nuw %struct.slurm_step_layout, ptr %112, i32 0, i32 5
  %114 = load i32, ptr %113, align 8
  %115 = zext i32 %114 to i64
  %116 = call ptr @slurm_xcalloc(i64 noundef %115, i64 noundef 8, i1 noundef zeroext true, i1 noundef zeroext false, ptr noundef @.str, i32 noundef 247, ptr noundef @__func__.slurm_step_layout_copy)
  %117 = load ptr, ptr %4, align 8
  %118 = getelementptr inbounds nuw %struct.slurm_step_layout, ptr %117, i32 0, i32 12
  store ptr %116, ptr %118, align 8
  store i32 0, ptr %5, align 4
  br label %119

119:                                              ; preds = %164, %111
  %120 = load i32, ptr %5, align 4
  %121 = load ptr, ptr %4, align 8
  %122 = getelementptr inbounds nuw %struct.slurm_step_layout, ptr %121, i32 0, i32 5
  %123 = load i32, ptr %122, align 8
  %124 = icmp ult i32 %120, %123
  br i1 %124, label %125, label %167

125:                                              ; preds = %119
  %126 = load ptr, ptr %4, align 8
  %127 = getelementptr inbounds nuw %struct.slurm_step_layout, ptr %126, i32 0, i32 9
  %128 = load ptr, ptr %127, align 8
  %129 = load i32, ptr %5, align 4
  %130 = sext i32 %129 to i64
  %131 = getelementptr inbounds i16, ptr %128, i64 %130
  %132 = load i16, ptr %131, align 2
  %133 = zext i16 %132 to i64
  %134 = call ptr @slurm_xcalloc(i64 noundef %133, i64 noundef 4, i1 noundef zeroext true, i1 noundef zeroext false, ptr noundef @.str, i32 noundef 249, ptr noundef @__func__.slurm_step_layout_copy)
  %135 = load ptr, ptr %4, align 8
  %136 = getelementptr inbounds nuw %struct.slurm_step_layout, ptr %135, i32 0, i32 12
  %137 = load ptr, ptr %136, align 8
  %138 = load i32, ptr %5, align 4
  %139 = sext i32 %138 to i64
  %140 = getelementptr inbounds ptr, ptr %137, i64 %139
  store ptr %134, ptr %140, align 8
  %141 = load ptr, ptr %4, align 8
  %142 = getelementptr inbounds nuw %struct.slurm_step_layout, ptr %141, i32 0, i32 12
  %143 = load ptr, ptr %142, align 8
  %144 = load i32, ptr %5, align 4
  %145 = sext i32 %144 to i64
  %146 = getelementptr inbounds ptr, ptr %143, i64 %145
  %147 = load ptr, ptr %146, align 8
  %148 = load ptr, ptr %3, align 8
  %149 = getelementptr inbounds nuw %struct.slurm_step_layout, ptr %148, i32 0, i32 12
  %150 = load ptr, ptr %149, align 8
  %151 = load i32, ptr %5, align 4
  %152 = sext i32 %151 to i64
  %153 = getelementptr inbounds ptr, ptr %150, i64 %152
  %154 = load ptr, ptr %153, align 8
  %155 = load ptr, ptr %4, align 8
  %156 = getelementptr inbounds nuw %struct.slurm_step_layout, ptr %155, i32 0, i32 9
  %157 = load ptr, ptr %156, align 8
  %158 = load i32, ptr %5, align 4
  %159 = sext i32 %158 to i64
  %160 = getelementptr inbounds i16, ptr %157, i64 %159
  %161 = load i16, ptr %160, align 2
  %162 = zext i16 %161 to i64
  %163 = mul i64 4, %162
  call void @llvm.memcpy.p0.p0.i64(ptr align 4 %147, ptr align 4 %154, i64 %163, i1 false)
  br label %164

164:                                              ; preds = %125
  %165 = load i32, ptr %5, align 4
  %166 = add nsw i32 %165, 1
  store i32 %166, ptr %5, align 4
  br label %119, !llvm.loop !17

167:                                              ; preds = %119
  %168 = load ptr, ptr %4, align 8
  store ptr %168, ptr %2, align 8
  store i32 1, ptr %6, align 4
  br label %169

169:                                              ; preds = %167, %10
  call void @llvm.lifetime.end.p0(i64 4, ptr %5) #7
  call void @llvm.lifetime.end.p0(i64 8, ptr %4) #7
  %170 = load ptr, ptr %2, align 8
  ret ptr %170
}