; Function Attrs: nounwind uwtable
define dso_local ptr @slurm_step_layout_copy(ptr noundef readonly captures(address_is_null) %0) local_unnamed_addr #0 {
  %.not = icmp eq ptr %0, null
  br i1 %.not, label %.loopexit, label %2

2:                                                ; preds = %1
  %3 = tail call ptr @slurm_xcalloc(i64 noundef 1, i64 noundef 88, i1 noundef zeroext true, i1 noundef zeroext false, ptr noundef nonnull @.str, i32 noundef 214, ptr noundef nonnull @__func__.slurm_step_layout_copy) #7
  %4 = getelementptr inbounds nuw i8, ptr %0, i64 32
  %5 = load ptr, ptr %4, align 8
  %.not53 = icmp eq ptr %5, null
  br i1 %.not53, label %10, label %6

6:                                                ; preds = %2
  %7 = tail call ptr @slurm_xcalloc(i64 noundef 1, i64 noundef 40, i1 noundef zeroext true, i1 noundef zeroext false, ptr noundef nonnull @.str, i32 noundef 216, ptr noundef nonnull @__func__.slurm_step_layout_copy) #7
  %8 = getelementptr inbounds nuw i8, ptr %3, i64 32
  store ptr %7, ptr %8, align 8
  %9 = load ptr, ptr %4, align 8
  tail call void @slurm_copy_node_alias_addrs_members(ptr noundef %7, ptr noundef %9) #7
  br label %10

10:                                               ; preds = %6, %2
  %11 = getelementptr inbounds nuw i8, ptr %0, i64 48
  %12 = load ptr, ptr %11, align 8
  %13 = tail call ptr @xstrdup(ptr noundef %12) #7
  %14 = getelementptr inbounds nuw i8, ptr %3, i64 48
  store ptr %13, ptr %14, align 8
  %15 = getelementptr inbounds nuw i8, ptr %0, i64 40
  %16 = load i32, ptr %15, align 8
  %17 = getelementptr inbounds nuw i8, ptr %3, i64 40
  store i32 %16, ptr %17, align 8
  %18 = getelementptr inbounds nuw i8, ptr %0, i64 58
  %19 = load i16, ptr %18, align 2
  %20 = getelementptr inbounds nuw i8, ptr %3, i64 58
  store i16 %19, ptr %20, align 2
  %21 = getelementptr inbounds nuw i8, ptr %0, i64 72
  %22 = load i32, ptr %21, align 8
  %23 = getelementptr inbounds nuw i8, ptr %3, i64 72
  store i32 %22, ptr %23, align 8
  %24 = getelementptr inbounds nuw i8, ptr %0, i64 76
  %25 = load i32, ptr %24, align 4
  %26 = getelementptr inbounds nuw i8, ptr %3, i64 76
  store i32 %25, ptr %26, align 4
  %27 = zext i32 %16 to i64
  %28 = tail call ptr @slurm_xcalloc(i64 noundef %27, i64 noundef 2, i1 noundef zeroext true, i1 noundef zeroext false, ptr noundef nonnull @.str, i32 noundef 226, ptr noundef nonnull @__func__.slurm_step_layout_copy) #7
  %29 = getelementptr inbounds nuw i8, ptr %3, i64 64
  store ptr %28, ptr %29, align 8
  %30 = getelementptr inbounds nuw i8, ptr %0, i64 64
  %31 = load ptr, ptr %30, align 8
  %32 = load i32, ptr %17, align 8
  %33 = zext i32 %32 to i64
  %34 = shl nuw nsw i64 %33, 1
  tail call void @llvm.memcpy.p0.p0.i64(ptr align 2 %28, ptr align 2 %31, i64 %34, i1 false)
  %35 = getelementptr inbounds nuw i8, ptr %0, i64 8
  %36 = load i32, ptr %35, align 8
  %.not54 = icmp eq i32 %36, 0
  br i1 %.not54, label %48, label %37

37:                                               ; preds = %10
  %38 = getelementptr inbounds nuw i8, ptr %3, i64 8
  store i32 %36, ptr %38, align 8
  %39 = zext i32 %36 to i64
  %40 = tail call ptr @slurm_xcalloc(i64 noundef %39, i64 noundef 2, i1 noundef zeroext true, i1 noundef zeroext false, ptr noundef nonnull @.str, i32 noundef 234, ptr noundef nonnull @__func__.slurm_step_layout_copy) #7
  store ptr %40, ptr %3, align 8
  %41 = load ptr, ptr %0, align 8
  %42 = shl nuw nsw i64 %39, 1
  tail call void @llvm.memcpy.p0.p0.i64(ptr align 2 %40, ptr align 2 %41, i64 %42, i1 false)
  %43 = tail call ptr @slurm_xcalloc(i64 noundef %39, i64 noundef 4, i1 noundef zeroext true, i1 noundef zeroext false, ptr noundef nonnull @.str, i32 noundef 240, ptr noundef nonnull @__func__.slurm_step_layout_copy) #7
  %44 = getelementptr inbounds nuw i8, ptr %3, i64 16
  store ptr %43, ptr %44, align 8
  %45 = getelementptr inbounds nuw i8, ptr %0, i64 16
  %46 = load ptr, ptr %45, align 8
  %47 = shl nuw nsw i64 %39, 2
  tail call void @llvm.memcpy.p0.p0.i64(ptr align 4 %43, ptr align 4 %46, i64 %47, i1 false)
  br label %48

48:                                               ; preds = %37, %10
  %49 = load i32, ptr %17, align 8
  %50 = zext i32 %49 to i64
  %51 = tail call ptr @slurm_xcalloc(i64 noundef %50, i64 noundef 8, i1 noundef zeroext true, i1 noundef zeroext false, ptr noundef nonnull @.str, i32 noundef 247, ptr noundef nonnull @__func__.slurm_step_layout_copy) #7
  %52 = getelementptr inbounds nuw i8, ptr %3, i64 80
  store ptr %51, ptr %52, align 8
  %53 = load i32, ptr %17, align 8
  %.not56 = icmp eq i32 %53, 0
  br i1 %.not56, label %.loopexit, label %.lr.ph

.lr.ph:                                           ; preds = %48
  %54 = getelementptr inbounds nuw i8, ptr %0, i64 80
  br label %55

55:                                               ; preds = %.lr.ph, %55
  %indvars.iv = phi i64 [ 0, %.lr.ph ], [ %indvars.iv.next, %55 ]
  %56 = load ptr, ptr %29, align 8
  %57 = getelementptr inbounds nuw i16, ptr %56, i64 %indvars.iv
  %58 = load i16, ptr %57, align 2
  %59 = zext i16 %58 to i64
  %60 = tail call ptr @slurm_xcalloc(i64 noundef %59, i64 noundef 4, i1 noundef zeroext true, i1 noundef zeroext false, ptr noundef nonnull @.str, i32 noundef 249, ptr noundef nonnull @__func__.slurm_step_layout_copy) #7
  %61 = load ptr, ptr %52, align 8
  %62 = getelementptr inbounds nuw ptr, ptr %61, i64 %indvars.iv
  store ptr %60, ptr %62, align 8
  %63 = load ptr, ptr %52, align 8
  %64 = getelementptr inbounds nuw ptr, ptr %63, i64 %indvars.iv
  %65 = load ptr, ptr %64, align 8
  %66 = load ptr, ptr %54, align 8
  %67 = getelementptr inbounds nuw ptr, ptr %66, i64 %indvars.iv
  %68 = load ptr, ptr %67, align 8
  %69 = load ptr, ptr %29, align 8
  %70 = getelementptr inbounds nuw i16, ptr %69, i64 %indvars.iv
  %71 = load i16, ptr %70, align 2
  %72 = zext i16 %71 to i64
  %73 = shl nuw nsw i64 %72, 2
  tail call void @llvm.memcpy.p0.p0.i64(ptr align 4 %65, ptr align 4 %68, i64 %73, i1 false)
  %indvars.iv.next = add nuw nsw i64 %indvars.iv, 1
  %74 = load i32, ptr %17, align 8
  %75 = zext i32 %74 to i64
  %76 = icmp samesign ult i64 %indvars.iv.next, %75
  br i1 %76, label %55, label %.loopexit, !llvm.loop !25

.loopexit:                                        ; preds = %55, %48, %1
  %.0 = phi ptr [ null, %1 ], [ %3, %48 ], [ %3, %55 ]
  ret ptr %.0
}